#include <math.h>
#include <stdio.h>
#include <stdlib.h>
#include <string.h>
#define LEN 100
#define ASCII 100
#define MAX_N 100
#define MAX_M 100
#define MAX 100
#define ASC 100
#define null 0
#define Len 100
#define shu 100
#define SUM 100
#define NUMBER 100
#define SIZE 100
#define X 100
#define Y 100
#define len 100
#define MAXN 100
#define MAXSIZE 100
#define maxrow 100
#define maxcol 100
#define num 100
#define mx 100
#define NUM 100
#define ROW 100
#define COL 100
#define SIZEE 100
#define MAX_LEN 100
#define LIU 100
#define maxsize 100
#define NUM 100
#define NO 100
#define Null 0
#define ID_DIGITS 100
#define INT_MAX 100
#define INT_MIN 100
#define FALSE 0
#define TRUE 1
int main()
{
	int n,x=2,y=2;
	scanf("%d",&n);
	int a[ROW][COL],i,j;
	for(i=0;i<n;i++){
		for(j=0;j<n;j++){
		scanf("%d",&a[i][j]);
		}
	}
	for(i=0;i<n;i++){
		 
		for(j=0;j<n;j++){
			if(a[i][j]==0&&a[i][j+1]==0){
			x++;}
		}
	}
    for(j=0;j<n;j++){
		 
		for(i=0;i<n;i++){
			if(a[i][j]==0&&a[i+1][j]==0){
			y++;}
		}
	}
	int s;
	s=(x/2-2)*(y/2-2);
	printf("%d",s);
	return 0;
}


